target datalayout = "e-m:e-p270:32:32-p271:32:32-p272:64:64-i64:64-i128:128-f80:128-n8:16:32:64-S128"
target triple = "x86_64-pc-linux-gnu"

@.str.22 = private unnamed_addr constant [61 x i8] c"-----------------------------------------------------------\0A\00", align 1
@.str.27 = private unnamed_addr constant [15 x i8] c"IDAGetNumSteps\00", align 1
@.str.32 = private unnamed_addr constant [18 x i8] c"IDAGetNumLinIters\00", align 1
@.str.33 = private unnamed_addr constant [18 x i8] c"IDAGetNumResEvals\00", align 1
@.str.34 = private unnamed_addr constant [22 x i8] c"IDAGetNumErrTestFails\00", align 1
@.str.35 = private unnamed_addr constant [20 x i8] c"IDAGetNumPrecSolves\00", align 1
@.str.36 = private unnamed_addr constant [19 x i8] c"IDAGetNumPrecEvals\00", align 1
@.str.37 = private unnamed_addr constant [21 x i8] c"IDAGetNumLinResEvals\00", align 1
@.str.38 = private unnamed_addr constant [25 x i8] c"Final run statistics: \0A\0A\00", align 1
@.str.39 = private unnamed_addr constant [45 x i8] c"Number of steps                       = %ld\0A\00", align 1
@.str.40 = private unnamed_addr constant [45 x i8] c"Number of residual evaluations        = %ld\0A\00", align 1
@.str.41 = private unnamed_addr constant [45 x i8] c"Number of Preconditioner evaluations  = %ld\0A\00", align 1
@.str.42 = private unnamed_addr constant [45 x i8] c"Number of linear iterations           = %ld\0A\00", align 1
@.str.43 = private unnamed_addr constant [45 x i8] c"Number of error test failures         = %ld\0A\00", align 1
@.str.44 = private unnamed_addr constant [45 x i8] c"Number of precond solve fun called    = %ld\0A\00", align 1
@stderr = external global ptr, align 8
@.str.45 = private unnamed_addr constant [55 x i8] c"\0ASUNDIALS_ERROR: %s() failed - returned NULL pointer\0A\0A\00", align 1
@.str.46 = private unnamed_addr constant [48 x i8] c"\0ASUNDIALS_ERROR: %s() failed with retval = %d\0A\0A\00", align 1
@.str.47 = private unnamed_addr constant [53 x i8] c"\0AMEMORY_ERROR: %s() failed - returned NULL pointer\0A\0A\00", align 1

; Function Attrs: nounwind uwtable
define internal i32 @check_retval(ptr noundef %0, ptr noundef %1, i32 noundef %2) #0 {
  %4 = alloca i32, align 4
  %5 = alloca ptr, align 8
  %6 = alloca ptr, align 8
  %7 = alloca i32, align 4
  %8 = alloca ptr, align 8
  %9 = alloca i32, align 4
  store ptr %0, ptr %5, align 8, !tbaa !4
  store ptr %1, ptr %6, align 8, !tbaa !28
  store i32 %2, ptr %7, align 4, !tbaa !12
  call void @llvm.lifetime.start.p0(i64 8, ptr %8) #6
  %10 = load i32, ptr %7, align 4, !tbaa !12
  %11 = icmp eq i32 %10, 0
  br i1 %11, label %12, label %19

12:                                               ; preds = %3
  %13 = load ptr, ptr %5, align 8, !tbaa !4
  %14 = icmp eq ptr %13, null
  br i1 %14, label %15, label %19

15:                                               ; preds = %12
  %16 = load ptr, ptr @stderr, align 8, !tbaa !30
  %17 = load ptr, ptr %6, align 8, !tbaa !28
  %18 = call i32 (ptr, ptr, ...) @fprintf(ptr noundef %16, ptr noundef @.str.45, ptr noundef %17) #6
  store i32 1, ptr %4, align 4
  store i32 1, ptr %9, align 4
  br label %47

19:                                               ; preds = %12, %3
  %20 = load i32, ptr %7, align 4, !tbaa !12
  %21 = icmp eq i32 %20, 1
  br i1 %21, label %22, label %34

22:                                               ; preds = %19
  %23 = load ptr, ptr %5, align 8, !tbaa !4
  store ptr %23, ptr %8, align 8, !tbaa !32
  %24 = load ptr, ptr %8, align 8, !tbaa !32
  %25 = load i32, ptr %24, align 4, !tbaa !12
  %26 = icmp slt i32 %25, 0
  br i1 %26, label %27, label %33

27:                                               ; preds = %22
  %28 = load ptr, ptr @stderr, align 8, !tbaa !30
  %29 = load ptr, ptr %6, align 8, !tbaa !28
  %30 = load ptr, ptr %8, align 8, !tbaa !32
  %31 = load i32, ptr %30, align 4, !tbaa !12
  %32 = call i32 (ptr, ptr, ...) @fprintf(ptr noundef %28, ptr noundef @.str.46, ptr noundef %29, i32 noundef %31) #6
  store i32 1, ptr %4, align 4
  store i32 1, ptr %9, align 4
  br label %47

33:                                               ; preds = %22
  br label %45

34:                                               ; preds = %19
  %35 = load i32, ptr %7, align 4, !tbaa !12
  %36 = icmp eq i32 %35, 2
  br i1 %36, label %37, label %44

37:                                               ; preds = %34
  %38 = load ptr, ptr %5, align 8, !tbaa !4
  %39 = icmp eq ptr %38, null
  br i1 %39, label %40, label %44

40:                                               ; preds = %37
  %41 = load ptr, ptr @stderr, align 8, !tbaa !30
  %42 = load ptr, ptr %6, align 8, !tbaa !28
  %43 = call i32 (ptr, ptr, ...) @fprintf(ptr noundef %41, ptr noundef @.str.47, ptr noundef %42) #6
  store i32 1, ptr %4, align 4
  store i32 1, ptr %9, align 4
  br label %47

44:                                               ; preds = %37, %34
  br label %45

45:                                               ; preds = %44, %33
  br label %46

46:                                               ; preds = %45
  store i32 0, ptr %4, align 4
  store i32 1, ptr %9, align 4
  br label %47

47:                                               ; preds = %46, %40, %27, %15
  call void @llvm.lifetime.end.p0(i64 8, ptr %8) #6
  %48 = load i32, ptr %4, align 4
  ret i32 %48
}

; Function Attrs: nounwind uwtable
define internal void @PrintFinalStats(ptr noundef %0) #0 {
  %2 = alloca ptr, align 8
  %3 = alloca i64, align 8
  %4 = alloca i64, align 8
  %5 = alloca i64, align 8
  %6 = alloca i64, align 8
  %7 = alloca i64, align 8
  %8 = alloca i64, align 8
  %9 = alloca i64, align 8
  %10 = alloca i32, align 4
  store ptr %0, ptr %2, align 8, !tbaa !4
  call void @llvm.lifetime.start.p0(i64 8, ptr %3) #6
  call void @llvm.lifetime.start.p0(i64 8, ptr %4) #6
  call void @llvm.lifetime.start.p0(i64 8, ptr %5) #6
  call void @llvm.lifetime.start.p0(i64 8, ptr %6) #6
  call void @llvm.lifetime.start.p0(i64 8, ptr %7) #6
  call void @llvm.lifetime.start.p0(i64 8, ptr %8) #6
  call void @llvm.lifetime.start.p0(i64 8, ptr %9) #6
  call void @llvm.lifetime.start.p0(i64 4, ptr %10) #6
  %11 = load ptr, ptr %2, align 8, !tbaa !4
  %12 = call i32 @IDAGetNumSteps(ptr noundef %11, ptr noundef %3)
  store i32 %12, ptr %10, align 4, !tbaa !12
  %13 = call i32 @check_retval(ptr noundef %10, ptr noundef @.str.27, i32 noundef 1)
  %14 = load ptr, ptr %2, align 8, !tbaa !4
  %15 = call i32 @IDAGetNumLinIters(ptr noundef %14, ptr noundef %5)
  store i32 %15, ptr %10, align 4, !tbaa !12
  %16 = call i32 @check_retval(ptr noundef %10, ptr noundef @.str.32, i32 noundef 1)
  %17 = load ptr, ptr %2, align 8, !tbaa !4
  %18 = call i32 @IDAGetNumResEvals(ptr noundef %17, ptr noundef %4)
  store i32 %18, ptr %10, align 4, !tbaa !12
  %19 = call i32 @check_retval(ptr noundef %10, ptr noundef @.str.33, i32 noundef 1)
  %20 = load ptr, ptr %2, align 8, !tbaa !4
  %21 = call i32 @IDAGetNumErrTestFails(ptr noundef %20, ptr noundef %6)
  store i32 %21, ptr %10, align 4, !tbaa !12
  %22 = call i32 @check_retval(ptr noundef %10, ptr noundef @.str.34, i32 noundef 1)
  %23 = load ptr, ptr %2, align 8, !tbaa !4
  %24 = call i32 @IDAGetNumPrecSolves(ptr noundef %23, ptr noundef %7)
  store i32 %24, ptr %10, align 4, !tbaa !12
  %25 = call i32 @check_retval(ptr noundef %10, ptr noundef @.str.35, i32 noundef 1)
  %26 = load ptr, ptr %2, align 8, !tbaa !4
  %27 = call i32 @IDAGetNumPrecEvals(ptr noundef %26, ptr noundef %8)
  store i32 %27, ptr %10, align 4, !tbaa !12
  %28 = call i32 @check_retval(ptr noundef %10, ptr noundef @.str.36, i32 noundef 1)
  %29 = load ptr, ptr %2, align 8, !tbaa !4
  %30 = call i32 @IDAGetNumLinResEvals(ptr noundef %29, ptr noundef %9)
  store i32 %30, ptr %10, align 4, !tbaa !12
  %31 = call i32 @check_retval(ptr noundef %10, ptr noundef @.str.37, i32 noundef 1)
  %32 = call i32 (ptr, ...) @printf(ptr noundef @.str.22)
  %33 = call i32 (ptr, ...) @printf(ptr noundef @.str.38)
  %34 = load i64, ptr %3, align 8, !tbaa !41
  %35 = call i32 (ptr, ...) @printf(ptr noundef @.str.39, i64 noundef %34)
  %36 = load i64, ptr %4, align 8, !tbaa !41
  %37 = call i32 (ptr, ...) @printf(ptr noundef @.str.40, i64 noundef %36)
  %38 = load i64, ptr %8, align 8, !tbaa !41
  %39 = call i32 (ptr, ...) @printf(ptr noundef @.str.41, i64 noundef %38)
  %40 = load i64, ptr %5, align 8, !tbaa !41
  %41 = call i32 (ptr, ...) @printf(ptr noundef @.str.42, i64 noundef %40)
  %42 = load i64, ptr %6, align 8, !tbaa !41
  %43 = call i32 (ptr, ...) @printf(ptr noundef @.str.43, i64 noundef %42)
  %44 = load i64, ptr %7, align 8, !tbaa !41
  %45 = call i32 (ptr, ...) @printf(ptr noundef @.str.44, i64 noundef %44)
  call void @llvm.lifetime.end.p0(i64 4, ptr %10) #6
  call void @llvm.lifetime.end.p0(i64 8, ptr %9) #6
  call void @llvm.lifetime.end.p0(i64 8, ptr %8) #6
  call void @llvm.lifetime.end.p0(i64 8, ptr %7) #6
  call void @llvm.lifetime.end.p0(i64 8, ptr %6) #6
  call void @llvm.lifetime.end.p0(i64 8, ptr %5) #6
  call void @llvm.lifetime.end.p0(i64 8, ptr %4) #6
  call void @llvm.lifetime.end.p0(i64 8, ptr %3) #6
  ret void
}