; Function Attrs: nounwind uwtable
define internal fastcc void @PrintFinalStats(ptr noundef %0) unnamed_addr #0 {
  %2 = alloca i64, align 8
  %3 = alloca i64, align 8
  %4 = alloca i64, align 8
  %5 = alloca i64, align 8
  %6 = alloca i64, align 8
  %7 = alloca i64, align 8
  %8 = alloca i64, align 8
  call void @llvm.lifetime.start.p0(i64 8, ptr nonnull %2) #12
  call void @llvm.lifetime.start.p0(i64 8, ptr nonnull %3) #12
  call void @llvm.lifetime.start.p0(i64 8, ptr nonnull %4) #12
  call void @llvm.lifetime.start.p0(i64 8, ptr nonnull %5) #12
  call void @llvm.lifetime.start.p0(i64 8, ptr nonnull %6) #12
  call void @llvm.lifetime.start.p0(i64 8, ptr nonnull %7) #12
  call void @llvm.lifetime.start.p0(i64 8, ptr nonnull %8) #12
  %9 = call i32 @IDAGetNumSteps(ptr noundef %0, ptr noundef nonnull %2) #12
  %10 = icmp slt i32 %9, 0
  br i1 %10, label %11, label %check_retval.exit

11:                                               ; preds = %1
  %12 = load ptr, ptr @stderr, align 8, !tbaa !4
  %13 = call i32 (ptr, ptr, ...) @fprintf(ptr noundef %12, ptr noundef nonnull @.str.46, ptr noundef nonnull @.str.27, i32 noundef %9) #13
  br label %check_retval.exit

check_retval.exit:                                ; preds = %1, %11
  %14 = call i32 @IDAGetNumLinIters(ptr noundef %0, ptr noundef nonnull %4) #12
  %15 = icmp slt i32 %14, 0
  br i1 %15, label %16, label %check_retval.exit9

16:                                               ; preds = %check_retval.exit
  %17 = load ptr, ptr @stderr, align 8, !tbaa !4
  %18 = call i32 (ptr, ptr, ...) @fprintf(ptr noundef %17, ptr noundef nonnull @.str.46, ptr noundef nonnull @.str.32, i32 noundef %14) #13
  br label %check_retval.exit9

check_retval.exit9:                               ; preds = %check_retval.exit, %16
  %19 = call i32 @IDAGetNumResEvals(ptr noundef %0, ptr noundef nonnull %3) #12
  %20 = icmp slt i32 %19, 0
  br i1 %20, label %21, label %check_retval.exit11

21:                                               ; preds = %check_retval.exit9
  %22 = load ptr, ptr @stderr, align 8, !tbaa !4
  %23 = call i32 (ptr, ptr, ...) @fprintf(ptr noundef %22, ptr noundef nonnull @.str.46, ptr noundef nonnull @.str.33, i32 noundef %19) #13
  br label %check_retval.exit11

check_retval.exit11:                              ; preds = %check_retval.exit9, %21
  %24 = call i32 @IDAGetNumErrTestFails(ptr noundef %0, ptr noundef nonnull %5) #12
  %25 = icmp slt i32 %24, 0
  br i1 %25, label %26, label %check_retval.exit13

26:                                               ; preds = %check_retval.exit11
  %27 = load ptr, ptr @stderr, align 8, !tbaa !4
  %28 = call i32 (ptr, ptr, ...) @fprintf(ptr noundef %27, ptr noundef nonnull @.str.46, ptr noundef nonnull @.str.34, i32 noundef %24) #13
  br label %check_retval.exit13

check_retval.exit13:                              ; preds = %check_retval.exit11, %26
  %29 = call i32 @IDAGetNumPrecSolves(ptr noundef %0, ptr noundef nonnull %6) #12
  %30 = icmp slt i32 %29, 0
  br i1 %30, label %31, label %check_retval.exit15

31:                                               ; preds = %check_retval.exit13
  %32 = load ptr, ptr @stderr, align 8, !tbaa !4
  %33 = call i32 (ptr, ptr, ...) @fprintf(ptr noundef %32, ptr noundef nonnull @.str.46, ptr noundef nonnull @.str.35, i32 noundef %29) #13
  br label %check_retval.exit15

check_retval.exit15:                              ; preds = %check_retval.exit13, %31
  %34 = call i32 @IDAGetNumPrecEvals(ptr noundef %0, ptr noundef nonnull %7) #12
  %35 = icmp slt i32 %34, 0
  br i1 %35, label %36, label %check_retval.exit17

36:                                               ; preds = %check_retval.exit15
  %37 = load ptr, ptr @stderr, align 8, !tbaa !4
  %38 = call i32 (ptr, ptr, ...) @fprintf(ptr noundef %37, ptr noundef nonnull @.str.46, ptr noundef nonnull @.str.36, i32 noundef %34) #13
  br label %check_retval.exit17

check_retval.exit17:                              ; preds = %check_retval.exit15, %36
  %39 = call i32 @IDAGetNumLinResEvals(ptr noundef %0, ptr noundef nonnull %8) #12
  %40 = icmp slt i32 %39, 0
  br i1 %40, label %41, label %check_retval.exit19

41:                                               ; preds = %check_retval.exit17
  %42 = load ptr, ptr @stderr, align 8, !tbaa !4
  %43 = call i32 (ptr, ptr, ...) @fprintf(ptr noundef %42, ptr noundef nonnull @.str.46, ptr noundef nonnull @.str.37, i32 noundef %39) #13
  br label %check_retval.exit19

check_retval.exit19:                              ; preds = %check_retval.exit17, %41
  %puts = call i32 @puts(ptr nonnull dereferenceable(1) @str.5)
  %puts7 = call i32 @puts(ptr nonnull dereferenceable(1) @str.6)
  %44 = load i64, ptr %2, align 8, !tbaa !41
  %45 = call i32 (ptr, ...) @printf(ptr noundef nonnull dereferenceable(1) @.str.39, i64 noundef %44)
  %46 = load i64, ptr %3, align 8, !tbaa !41
  %47 = call i32 (ptr, ...) @printf(ptr noundef nonnull dereferenceable(1) @.str.40, i64 noundef %46)
  %48 = load i64, ptr %7, align 8, !tbaa !41
  %49 = call i32 (ptr, ...) @printf(ptr noundef nonnull dereferenceable(1) @.str.41, i64 noundef %48)
  %50 = load i64, ptr %4, align 8, !tbaa !41
  %51 = call i32 (ptr, ...) @printf(ptr noundef nonnull dereferenceable(1) @.str.42, i64 noundef %50)
  %52 = load i64, ptr %5, align 8, !tbaa !41
  %53 = call i32 (ptr, ...) @printf(ptr noundef nonnull dereferenceable(1) @.str.43, i64 noundef %52)
  %54 = load i64, ptr %6, align 8, !tbaa !41
  %55 = call i32 (ptr, ...) @printf(ptr noundef nonnull dereferenceable(1) @.str.44, i64 noundef %54)
  call void @llvm.lifetime.end.p0(i64 8, ptr nonnull %8) #12
  call void @llvm.lifetime.end.p0(i64 8, ptr nonnull %7) #12
  call void @llvm.lifetime.end.p0(i64 8, ptr nonnull %6) #12
  call void @llvm.lifetime.end.p0(i64 8, ptr nonnull %5) #12
  call void @llvm.lifetime.end.p0(i64 8, ptr nonnull %4) #12
  call void @llvm.lifetime.end.p0(i64 8, ptr nonnull %3) #12
  call void @llvm.lifetime.end.p0(i64 8, ptr nonnull %2) #12
  ret void
}